target datalayout = "e-m:e-p270:32:32-p271:32:32-p272:64:64-i64:64-i128:128-f80:128-n8:16:32:64-S128"
target triple = "x86_64-pc-linux-gnu"

%struct.eio_obj = type { i32, ptr, ptr, i8 }
%struct.task_read_info = type { i32, i16, i16, i16, ptr, ptr, i8, i8 }

@.str.26 = private unnamed_addr constant [8 x i8] c"  false\00", align 1
@.str.74 = private unnamed_addr constant [35 x i8] c"Called _task_readable, task %d, %s\00", align 1
@.str.75 = private unnamed_addr constant [7 x i8] c"STDOUT\00", align 1
@.str.76 = private unnamed_addr constant [7 x i8] c"STDERR\00", align 1
@.str.77 = private unnamed_addr constant [26 x i8] c"  false, eof message sent\00", align 1
@.str.78 = private unnamed_addr constant [17 x i8] c"  cbuf_free = %d\00", align 1

; Function Attrs: nounwind uwtable
define internal zeroext i1 @_task_readable(ptr noundef %0) #0 {
  %2 = alloca i1, align 1
  %3 = alloca ptr, align 8
  %4 = alloca ptr, align 8
  %5 = alloca i32, align 4
  store ptr %0, ptr %3, align 8
  call void @llvm.lifetime.start.p0(i64 8, ptr %4) #10
  %6 = load ptr, ptr %3, align 8
  %7 = getelementptr inbounds nuw %struct.eio_obj, ptr %6, i32 0, i32 1
  %8 = load ptr, ptr %7, align 8
  store ptr %8, ptr %4, align 8
  br label %9

9:                                                ; preds = %1
  br label %10

10:                                               ; preds = %9
  %11 = call i32 @get_log_level()
  %12 = icmp sge i32 %11, 9
  br i1 %12, label %13, label %24

13:                                               ; preds = %10
  %14 = load ptr, ptr %4, align 8
  %15 = getelementptr inbounds nuw %struct.task_read_info, ptr %14, i32 0, i32 2
  %16 = load i16, ptr %15, align 2
  %17 = zext i16 %16 to i32
  %18 = load ptr, ptr %4, align 8
  %19 = getelementptr inbounds nuw %struct.task_read_info, ptr %18, i32 0, i32 1
  %20 = load i16, ptr %19, align 4
  %21 = zext i16 %20 to i32
  %22 = icmp eq i32 %21, 1
  %23 = select i1 %22, ptr @.str.75, ptr @.str.76
  call void (i32, ptr, ...) @log_var(i32 noundef 9, ptr noundef @.str.74, i32 noundef %17, ptr noundef %23)
  br label %24

24:                                               ; preds = %13, %10
  br label %25

25:                                               ; preds = %24
  br label %26

26:                                               ; preds = %25
  br label %27

27:                                               ; preds = %26
  br label %28

28:                                               ; preds = %27
  %29 = load ptr, ptr %4, align 8
  %30 = getelementptr inbounds nuw %struct.task_read_info, ptr %29, i32 0, i32 7
  %31 = load i8, ptr %30, align 1, !range !8, !noundef !9
  %32 = trunc i8 %31 to i1
  br i1 %32, label %33, label %44

33:                                               ; preds = %28
  br label %34

34:                                               ; preds = %33
  br label %35

35:                                               ; preds = %34
  %36 = call i32 @get_log_level()
  %37 = icmp sge i32 %36, 9
  br i1 %37, label %38, label %39

38:                                               ; preds = %35
  call void (i32, ptr, ...) @log_var(i32 noundef 9, ptr noundef @.str.77)
  br label %39

39:                                               ; preds = %38, %35
  br label %40

40:                                               ; preds = %39
  br label %41

41:                                               ; preds = %40
  br label %42

42:                                               ; preds = %41
  br label %43

43:                                               ; preds = %42
  store i1 false, ptr %2, align 1
  store i32 1, ptr %5, align 4
  br label %76

44:                                               ; preds = %28
  %45 = load ptr, ptr %4, align 8
  %46 = getelementptr inbounds nuw %struct.task_read_info, ptr %45, i32 0, i32 5
  %47 = load ptr, ptr %46, align 8
  %48 = call i32 @cbuf_free(ptr noundef %47)
  %49 = icmp sgt i32 %48, 0
  br i1 %49, label %50, label %65

50:                                               ; preds = %44
  br label %51

51:                                               ; preds = %50
  br label %52

52:                                               ; preds = %51
  %53 = call i32 @get_log_level()
  %54 = icmp sge i32 %53, 9
  br i1 %54, label %55, label %60

55:                                               ; preds = %52
  %56 = load ptr, ptr %4, align 8
  %57 = getelementptr inbounds nuw %struct.task_read_info, ptr %56, i32 0, i32 5
  %58 = load ptr, ptr %57, align 8
  %59 = call i32 @cbuf_free(ptr noundef %58)
  call void (i32, ptr, ...) @log_var(i32 noundef 9, ptr noundef @.str.78, i32 noundef %59)
  br label %60

60:                                               ; preds = %55, %52
  br label %61

61:                                               ; preds = %60
  br label %62

62:                                               ; preds = %61
  br label %63

63:                                               ; preds = %62
  br label %64

64:                                               ; preds = %63
  store i1 true, ptr %2, align 1
  store i32 1, ptr %5, align 4
  br label %76

65:                                               ; preds = %44
  br label %66

66:                                               ; preds = %65
  br label %67

67:                                               ; preds = %66
  %68 = call i32 @get_log_level()
  %69 = icmp sge i32 %68, 9
  br i1 %69, label %70, label %71

70:                                               ; preds = %67
  call void (i32, ptr, ...) @log_var(i32 noundef 9, ptr noundef @.str.26)
  br label %71

71:                                               ; preds = %70, %67
  br label %72

72:                                               ; preds = %71
  br label %73

73:                                               ; preds = %72
  br label %74

74:                                               ; preds = %73
  br label %75

75:                                               ; preds = %74
  store i1 false, ptr %2, align 1
  store i32 1, ptr %5, align 4
  br label %76

76:                                               ; preds = %75, %64, %43
  call void @llvm.lifetime.end.p0(i64 8, ptr %4) #10
  %77 = load i1, ptr %2, align 1
  ret i1 %77
}