; Function Attrs: nounwind uwtable
define internal noundef zeroext i1 @_task_readable(ptr noundef readonly captures(none) %0) #0 {
  %2 = getelementptr inbounds nuw i8, ptr %0, i64 8
  %3 = load ptr, ptr %2, align 8
  %4 = tail call i32 @get_log_level() #11
  %5 = icmp sgt i32 %4, 8
  br i1 %5, label %6, label %14

6:                                                ; preds = %1
  %7 = getelementptr inbounds nuw i8, ptr %3, i64 6
  %8 = load i16, ptr %7, align 2
  %9 = zext i16 %8 to i32
  %10 = getelementptr inbounds nuw i8, ptr %3, i64 4
  %11 = load i16, ptr %10, align 4
  %12 = icmp eq i16 %11, 1
  %13 = select i1 %12, ptr @.str.75, ptr @.str.76
  tail call void (i32, ptr, ...) @log_var(i32 noundef 9, ptr noundef nonnull @.str.74, i32 noundef %9, ptr noundef nonnull %13) #11
  br label %14

14:                                               ; preds = %6, %1
  %15 = getelementptr inbounds nuw i8, ptr %3, i64 33
  %16 = load i8, ptr %15, align 1, !range !8, !noundef !9
  %17 = trunc nuw i8 %16 to i1
  br i1 %17, label %18, label %22

18:                                               ; preds = %14
  %19 = tail call i32 @get_log_level() #11
  %20 = icmp sgt i32 %19, 8
  br i1 %20, label %21, label %35

21:                                               ; preds = %18
  tail call void (i32, ptr, ...) @log_var(i32 noundef 9, ptr noundef nonnull @.str.77) #11
  br label %35

22:                                               ; preds = %14
  %23 = getelementptr inbounds nuw i8, ptr %3, i64 24
  %24 = load ptr, ptr %23, align 8
  %25 = tail call i32 @cbuf_free(ptr noundef %24) #11
  %26 = icmp sgt i32 %25, 0
  %27 = tail call i32 @get_log_level() #11
  %28 = icmp sgt i32 %27, 8
  br i1 %26, label %29, label %33

29:                                               ; preds = %22
  br i1 %28, label %30, label %35

30:                                               ; preds = %29
  %31 = load ptr, ptr %23, align 8
  %32 = tail call i32 @cbuf_free(ptr noundef %31) #11
  tail call void (i32, ptr, ...) @log_var(i32 noundef 9, ptr noundef nonnull @.str.78, i32 noundef %32) #11
  br label %35

33:                                               ; preds = %22
  br i1 %28, label %34, label %35

34:                                               ; preds = %33
  tail call void (i32, ptr, ...) @log_var(i32 noundef 9, ptr noundef nonnull @.str.26) #11
  br label %35

35:                                               ; preds = %33, %34, %29, %30, %18, %21
  %.0 = phi i1 [ false, %21 ], [ false, %18 ], [ true, %30 ], [ true, %29 ], [ false, %34 ], [ false, %33 ]
  ret i1 %.0
}